#include <math.h>
#include <stdio.h>
#include <stdlib.h>
#include <string.h>

int main()
{
    int i,a,b,c,d,e,A,B,C,D,E;
    if(e==1)
    A==1;
    else A==0; 
    B==1;
    if(a==5)
    C==1;
    else C==0; 
    if(c!=1)
    D==1;
    else D==0;
    if(d==1)
    E==1;
    else E==0;                                                                                                                                                                                                                    a=5;b=2;c=1;d=3;e=4;
    for(i=1;i<=5;i++)
    {
                     if(a==i)
                     A=1;
    }               
    printf("%d %d %d %d %d",a,b,c,d,e);
}
     
     